; Function Attrs: mustprogress uwtable
define void @_ZN3nix11RemoteStore10ensurePathERKNS_9StorePathE(ptr noundef nonnull align 8 dereferenceable(25) %0, ptr noundef nonnull align 8 dereferenceable(32) %1) unnamed_addr #5 align 2 personality ptr @__gxx_personality_v0 {
  %3 = alloca [8 x i8], align 1
  %4 = alloca %"struct.nix::RemoteStore::ConnectionHandle", align 8
  %5 = alloca %"class.std::__cxx11::basic_string", align 8
  call void @_ZN3nix11RemoteStore13getConnectionEv(ptr dead_on_unwind nonnull writable sret(%"struct.nix::RemoteStore::ConnectionHandle") align 8 %4, ptr noundef nonnull align 8 dereferenceable(25) %0)
  %6 = getelementptr inbounds i8, ptr %4, i64 8
  %7 = load ptr, ptr %6, align 8
  %8 = getelementptr inbounds i8, ptr %7, i64 8
  %9 = load ptr, ptr %8, align 8
  %10 = getelementptr i8, ptr %9, i64 -48
  %11 = load i64, ptr %10, align 8
  %12 = getelementptr inbounds i8, ptr %8, i64 %11
  call void @llvm.lifetime.start.p0(i64 8, ptr nonnull %3)
  store i8 10, ptr %3, align 1
  %13 = getelementptr inbounds i8, ptr %3, i64 1
  call void @llvm.memset.p0.i64(ptr noundef nonnull align 1 dereferenceable(7) %13, i8 0, i64 7, i1 false)
  %14 = load ptr, ptr %12, align 8
  %15 = getelementptr inbounds i8, ptr %14, i64 16
  %16 = load ptr, ptr %15, align 8
  invoke void %16(ptr noundef nonnull align 8 dereferenceable(8) %12, i64 8, ptr nonnull %3)
          to label %17 unwind label %37

17:                                               ; preds = %2
  call void @llvm.lifetime.end.p0(i64 8, ptr nonnull %3)
  %18 = load ptr, ptr %0, align 8
  %19 = getelementptr i8, ptr %18, i64 -32
  %20 = load i64, ptr %19, align 8
  %21 = getelementptr inbounds i8, ptr %0, i64 %20
  invoke void @_ZNK3nix14StoreDirConfig14printStorePathB5cxx11ERKNS_9StorePathE(ptr dead_on_unwind nonnull writable sret(%"class.std::__cxx11::basic_string") align 8 %5, ptr noundef nonnull align 8 dereferenceable(344) %21, ptr noundef nonnull align 8 dereferenceable(32) %1)
          to label %22 unwind label %37

22:                                               ; preds = %17
  %23 = load ptr, ptr %5, align 8
  %24 = getelementptr inbounds i8, ptr %5, i64 8
  %25 = load i64, ptr %24, align 8
  %26 = invoke noundef nonnull align 8 dereferenceable(8) ptr @_ZN3nixlsERNS_4SinkESt17basic_string_viewIcSt11char_traitsIcEE(ptr noundef nonnull align 8 dereferenceable(8) %12, i64 %25, ptr %23)
          to label %27 unwind label %39

27:                                               ; preds = %22
  %28 = load ptr, ptr %5, align 8
  %29 = getelementptr inbounds i8, ptr %5, i64 16
  %30 = icmp eq ptr %28, %29
  br i1 %30, label %_ZNKSt7__cxx1112basic_stringIcSt11char_traitsIcESaIcEE11_M_is_localEv.exit.thread.i.i, label %_ZNKSt7__cxx1112basic_stringIcSt11char_traitsIcESaIcEE11_M_is_localEv.exit.i.i

_ZNKSt7__cxx1112basic_stringIcSt11char_traitsIcESaIcEE11_M_is_localEv.exit.thread.i.i: ; preds = %27
  %31 = load i64, ptr %24, align 8
  %32 = icmp ult i64 %31, 16
  call void @llvm.assume(i1 %32)
  br label %_ZNSt7__cxx1112basic_stringIcSt11char_traitsIcESaIcEED2Ev.exit

_ZNKSt7__cxx1112basic_stringIcSt11char_traitsIcESaIcEE11_M_is_localEv.exit.i.i: ; preds = %27
  call void @_ZdlPv(ptr noundef %28) #32
  br label %_ZNSt7__cxx1112basic_stringIcSt11char_traitsIcESaIcEED2Ev.exit

_ZNSt7__cxx1112basic_stringIcSt11char_traitsIcESaIcEED2Ev.exit: ; preds = %_ZNKSt7__cxx1112basic_stringIcSt11char_traitsIcESaIcEE11_M_is_localEv.exit.thread.i.i, %_ZNKSt7__cxx1112basic_stringIcSt11char_traitsIcESaIcEE11_M_is_localEv.exit.i.i
  call void @_ZNSaIcED2Ev(ptr noundef nonnull align 1 dereferenceable(1) %5) #29
  invoke void @_ZN3nix11RemoteStore16ConnectionHandle13processStderrEPNS_4SinkEPNS_6SourceEb(ptr noundef nonnull align 8 dereferenceable(33) %4, ptr noundef null, ptr noundef null, i1 noundef zeroext true)
          to label %33 unwind label %37

33:                                               ; preds = %_ZNSt7__cxx1112basic_stringIcSt11char_traitsIcESaIcEED2Ev.exit
  %34 = load ptr, ptr %6, align 8
  %35 = getelementptr inbounds i8, ptr %34, i64 64
  %36 = invoke noundef i32 @_ZN3nix7readNumIjEET_RNS_6SourceE(ptr noundef nonnull align 8 dereferenceable(8) %35)
          to label %_ZN3nix7readIntERNS_6SourceE.exit unwind label %37

_ZN3nix7readIntERNS_6SourceE.exit:                ; preds = %33
  call void @_ZN3nix11RemoteStore16ConnectionHandleD1Ev(ptr noundef nonnull align 8 dereferenceable(33) %4) #29
  ret void

37:                                               ; preds = %33, %2, %_ZNSt7__cxx1112basic_stringIcSt11char_traitsIcESaIcEED2Ev.exit, %17
  %38 = landingpad { ptr, i32 }
          cleanup
  br label %41

39:                                               ; preds = %22
  %40 = landingpad { ptr, i32 }
          cleanup
  call void @_ZNSt7__cxx1112basic_stringIcSt11char_traitsIcESaIcEED2Ev(ptr noundef nonnull align 8 dereferenceable(32) %5) #29
  br label %41

41:                                               ; preds = %39, %37
  %.pn = phi { ptr, i32 } [ %38, %37 ], [ %40, %39 ]
  call void @_ZN3nix11RemoteStore16ConnectionHandleD1Ev(ptr noundef nonnull align 8 dereferenceable(33) %4) #29
  resume { ptr, i32 } %.pn
}